target datalayout = "e-m:e-p270:32:32-p271:32:32-p272:64:64-i64:64-i128:128-f80:128-n8:16:32:64-S128"
target triple = "x86_64-pc-linux-gnu"

%struct.Proto = type { ptr, i8, i8, i8, i8, i8, i32, i32, i32, i32, i32, i32, i32, i32, i32, ptr, ptr, ptr, ptr, ptr, ptr, ptr, ptr, ptr }

; Function Attrs: nounwind uwtable
define hidden i64 @luaF_protosize(ptr noundef %0) #0 {
  %2 = alloca ptr, align 8
  %3 = alloca i64, align 8
  store ptr %0, ptr %2, align 8, !tbaa !61
  call void @llvm.lifetime.start.p0(i64 8, ptr %3) #5
  %4 = load ptr, ptr %2, align 8, !tbaa !61
  %5 = getelementptr inbounds nuw %struct.Proto, ptr %4, i32 0, i32 10
  %6 = load i32, ptr %5, align 8, !tbaa !71
  %7 = zext i32 %6 to i64
  %8 = mul i64 %7, 8
  %9 = add i64 128, %8
  %10 = load ptr, ptr %2, align 8, !tbaa !61
  %11 = getelementptr inbounds nuw %struct.Proto, ptr %10, i32 0, i32 7
  %12 = load i32, ptr %11, align 4, !tbaa !69
  %13 = zext i32 %12 to i64
  %14 = mul i64 %13, 16
  %15 = add i64 %9, %14
  %16 = load ptr, ptr %2, align 8, !tbaa !61
  %17 = getelementptr inbounds nuw %struct.Proto, ptr %16, i32 0, i32 11
  %18 = load i32, ptr %17, align 4, !tbaa !84
  %19 = zext i32 %18 to i64
  %20 = mul i64 %19, 16
  %21 = add i64 %15, %20
  %22 = load ptr, ptr %2, align 8, !tbaa !61
  %23 = getelementptr inbounds nuw %struct.Proto, ptr %22, i32 0, i32 6
  %24 = load i32, ptr %23, align 8, !tbaa !79
  %25 = zext i32 %24 to i64
  %26 = mul i64 %25, 16
  %27 = add i64 %21, %26
  store i64 %27, ptr %3, align 8, !tbaa !60
  %28 = load ptr, ptr %2, align 8, !tbaa !61
  %29 = getelementptr inbounds nuw %struct.Proto, ptr %28, i32 0, i32 4
  %30 = load i8, ptr %29, align 1, !tbaa !81
  %31 = zext i8 %30 to i32
  %32 = and i32 %31, 2
  %33 = icmp ne i32 %32, 0
  br i1 %33, label %56, label %34

34:                                               ; preds = %1
  %35 = load ptr, ptr %2, align 8, !tbaa !61
  %36 = getelementptr inbounds nuw %struct.Proto, ptr %35, i32 0, i32 8
  %37 = load i32, ptr %36, align 8, !tbaa !73
  %38 = zext i32 %37 to i64
  %39 = mul i64 %38, 4
  %40 = load i64, ptr %3, align 8, !tbaa !60
  %41 = add i64 %40, %39
  store i64 %41, ptr %3, align 8, !tbaa !60
  %42 = load ptr, ptr %2, align 8, !tbaa !61
  %43 = getelementptr inbounds nuw %struct.Proto, ptr %42, i32 0, i32 9
  %44 = load i32, ptr %43, align 4, !tbaa !75
  %45 = zext i32 %44 to i64
  %46 = mul i64 %45, 1
  %47 = load i64, ptr %3, align 8, !tbaa !60
  %48 = add i64 %47, %46
  store i64 %48, ptr %3, align 8, !tbaa !60
  %49 = load ptr, ptr %2, align 8, !tbaa !61
  %50 = getelementptr inbounds nuw %struct.Proto, ptr %49, i32 0, i32 12
  %51 = load i32, ptr %50, align 8, !tbaa !77
  %52 = zext i32 %51 to i64
  %53 = mul i64 %52, 8
  %54 = load i64, ptr %3, align 8, !tbaa !60
  %55 = add i64 %54, %53
  store i64 %55, ptr %3, align 8, !tbaa !60
  br label %56

56:                                               ; preds = %34, %1
  %57 = load i64, ptr %3, align 8, !tbaa !60
  call void @llvm.lifetime.end.p0(i64 8, ptr %3) #5
  ret i64 %57
}