; Function Attrs: mustprogress nofree norecurse nosync nounwind willreturn memory(argmem: read) uwtable
define hidden range(i64 128, 296352743484) i64 @luaF_protosize(ptr noundef readonly captures(none) %0) local_unnamed_addr #3 {
  %2 = getelementptr inbounds nuw i8, ptr %0, i64 32
  %3 = load i32, ptr %2, align 8, !tbaa !55
  %4 = zext i32 %3 to i64
  %5 = shl nuw nsw i64 %4, 3
  %6 = add nuw nsw i64 %5, 128
  %7 = getelementptr inbounds nuw i8, ptr %0, i64 20
  %8 = load i32, ptr %7, align 4, !tbaa !56
  %9 = zext i32 %8 to i64
  %10 = getelementptr inbounds nuw i8, ptr %0, i64 36
  %11 = load i32, ptr %10, align 4, !tbaa !57
  %12 = zext i32 %11 to i64
  %13 = add nuw nsw i64 %12, %9
  %14 = getelementptr inbounds nuw i8, ptr %0, i64 16
  %15 = load i32, ptr %14, align 8, !tbaa !58
  %16 = zext i32 %15 to i64
  %17 = add nuw nsw i64 %13, %16
  %18 = shl nuw nsw i64 %17, 4
  %19 = add nuw nsw i64 %6, %18
  %20 = getelementptr inbounds nuw i8, ptr %0, i64 11
  %21 = load i8, ptr %20, align 1, !tbaa !53
  %22 = and i8 %21, 2
  %.not = icmp eq i8 %22, 0
  br i1 %.not, label %23, label %38

23:                                               ; preds = %1
  %24 = getelementptr inbounds nuw i8, ptr %0, i64 24
  %25 = load i32, ptr %24, align 8, !tbaa !59
  %26 = zext i32 %25 to i64
  %27 = shl nuw nsw i64 %26, 2
  %28 = add nuw nsw i64 %27, %19
  %29 = getelementptr inbounds nuw i8, ptr %0, i64 28
  %30 = load i32, ptr %29, align 4, !tbaa !60
  %31 = zext i32 %30 to i64
  %32 = add nuw nsw i64 %28, %31
  %33 = getelementptr inbounds nuw i8, ptr %0, i64 40
  %34 = load i32, ptr %33, align 8, !tbaa !61
  %35 = zext i32 %34 to i64
  %36 = shl nuw nsw i64 %35, 3
  %37 = add nuw nsw i64 %32, %36
  br label %38

38:                                               ; preds = %23, %1
  %.0 = phi i64 [ %19, %1 ], [ %37, %23 ]
  ret i64 %.0
}